(lp0
(iStructure
Run
p1
(dp2
S'settemp'
p3
F-11.0
sS'runnumber'
p4
I1
sS'frequency'
p5
S'Cal'
p6
sS'ambientgun'
p7
F23.6
sS'_Run__coolingrate'
p8
cnumpy.core.multiarray
scalar
p9
(cnumpy
dtype
p10
(S'f8'
p11
I0
I1
tp12
Rp13
(I3
S'<'
p14
NNNI-1
I-1
I0
tp15
bS"\x93S'g\x07]\xda?"
p16
tp17
Rp18
sS'_Run__asymptotictemp'
p19
g9
(g13
S'n^\xbaI\x0c\x02"\xc0'
p20
tp21
Rp22
sS'timeofday'
p23
I0
sS'data'
p24
cnumpy.core.multiarray
_reconstruct
p25
(cnumpy
ndarray
p26
(I0
tp27
S'b'
p28
tp29
Rp30
(I1
(I3
I9
tp31
g10
(S'O8'
p32
I0
I1
tp33
Rp34
(I3
S'|'
p35
NNNI-1
I-1
I63
tp36
bI00
(lp37
F0.0
aF1.0
aF2.0
aF3.0
aF4.0
aF5.0
aF6.0
aF6.99
aF7.0
aF10.8
aI5
aF-0.2
aF-2.5
aI-5
aF-6.4
aF-7.3
aF-7.8
aI0
aF12.26
aF-8.63
aF-10.43
aF-11.08
aF-11.17
aF-11.14
aF-11.08
aF-11.08
aNatp38
bsS'day'
p39
S'10'
p40
sS'ambientthermometer'
p41
F25.3
sS'freezetemp'
p42
F-7.8
sba(iStructure
Run
p43
(dp44
g3
F-10.5
sg4
I2
sg5
F22.5
sg7
F23.6
sg8
g9
(g13
S'R<\x08\x82\xc5c\xe0?'
p45
tp46
Rp47
sg19
g9
(g13
S'2\x9c\xc4 \xb0\xf2\x1f\xc0'
p48
tp49
Rp50
sg23
I12
sg24
g25
(g26
(I0
tp51
g28
tp52
Rp53
(I1
(I3
I11
tp54
g34
I00
(lp55
F0.0
aF1.25
aF2.0
aF3.0
aF4.0
aF5.0
aF6.0
aF7.0
aF8.0
aF8.5
aF8.51
aF8.4
aF2.1
aF-0.6
aF-2.8
aF-4.9
aF-6.3
aI-7
aF-7.4
aF-7.6
aF-7.7
aI0
aF12.27
aF-8.64
aF-9.92
aF-10.54
aF-10.65
aF-10.62
aF-10.57
aF-10.54
aF-10.53
aF-10.52
aNatp56
bsg39
S'10'
p57
sg41
F25.1
sg42
F-7.7
sba(iStructure
Run
p58
(dp59
g3
F-10.5
sg4
I3
sg5
S'Cal'
p60
sg7
F24.2
sg8
g9
(g13
S'\x16\xc7\x7f\xefA\xc4\xdf?'
p61
tp62
Rp63
sg19
g9
(g13
S'\xd4\xc2\xf5(\\\x0f \xc0'
p64
tp65
Rp66
sg23
I28
sg24
g25
(g26
(I0
tp67
g28
tp68
Rp69
(I1
(I3
I11
tp70
g34
I00
(lp71
F0.0
aF1.25
aF2.0
aF3.25
aF4.0
aF5.0
aF6.0
aF7.0
aF8.0
aF8.5
aF8.51
aF9.2
aI3
aF-0.3
aF-3.3
aF-4.9
aF-6.2
aF-6.9
aF-7.4
aF-7.6
aF-7.7
aI0
aF14.66
aF-8.56
aF-10.02
aF-10.57
aF-10.63
aF-10.62
aF-10.57
aF-10.54
aF-10.53
aF-10.5
aNatp72
bsg39
S'10'
p73
sg41
F24.6
sg42
F-7.7
sba(iStructure
Run
p74
(dp75
g3
F-10.5
sg4
I4
sg5
F67.5
sg7
F23.6
sg8
g9
(g13
S'<\xed\xf4B[d\xdf?'
p76
tp77
Rp78
sg19
g9
(g13
S'A\x00\x00\x00\x00@ \xc0'
p79
tp80
Rp81
sg23
I38
sg24
g25
(g26
(I0
tp82
g28
tp83
Rp84
(I1
(I3
I10
tp85
g34
I00
(lp86
F0.0
aF1.0
aF2.0
aF3.0
aF4.0
aF5.0
aF6.0
aF7.0
aF7.33
aF7.34
aF7.9
aF2.8
aF-0.7
aI-3
aF-5.2
aF-6.4
aF-7.1
aF-7.5
aF-7.5
aI0
aF14.84
aF-8.33
aF-9.93
aF-10.51
aF-10.62
aF-10.61
aF-10.56
aF-10.53
aNaNatp87
bsg39
S'10'
p88
sg41
F25.0
sg42
F-7.5
sba(iStructure
Run
p89
(dp90
g3
F-10.5
sg4
I5
sg5
S'Cal'
p91
sg7
F23.2
sg8
g9
(g13
S'\xdd\x12\n\xe4jj\xdd?'
p92
tp93
Rp94
sg19
g9
(g13
S'\x85\xe1z\x14\xae\x87 \xc0'
p95
tp96
Rp97
sg23
I48
sg24
g25
(g26
(I0
tp98
g28
tp99
Rp100
(I1
(I3
I10
tp101
g34
I00
(lp102
F0.0
aF1.0
aF2.0
aF3.0
aF4.0
aF5.0
aF6.0
aF7.0
aF7.44
aF7.45
aF7.7
aI3
aF-0.8
aF-3.1
aF-5.1
aF-6.3
aF-7.1
aF-7.5
aF-7.6
aI0
aF14.77
aF-8.11
aF-9.88
aF-10.5
aF-10.62
aF-10.61
aF-10.57
aF-10.55
aNaNatp103
bsg39
S'10'
p104
sg41
F24.3
sg42
F-7.6
sba(iStructure
Run
p105
(dp106
g3
F-10.5
sg4
I6
sg5
F42.5
sg7
F23.0
sg8
g9
(g13
S'\xd1[t\xdf\r\xfe\xda?'
p107
tp108
Rp109
sg19
g9
(g13
S'HX9\xb4\xc8\xf6 \xc0'
p110
tp111
Rp112
sg23
I57
sg24
g25
(g26
(I0
tp113
g28
tp114
Rp115
(I1
(I3
I8
tp116
g34
I00
(lp117
F0.0
aF1.0
aF2.0
aF3.0
aF4.0
aF5.0
aF5.95
aF6.0
aF8.2
aF2.7
aF-0.8
aF-3.2
aF-5.2
aF-6.3
aI-7
aI0
aF14.68
aF-8.27
aF-9.93
aF-10.51
aF-10.62
aF-10.62
aNaNatp118
bsg39
S'10'
p119
sg41
F24.0
sg42
I-7
sba(iStructure
Run
p120
(dp121
g3
F-10.5
sg4
I7
sg5
S'Cal'
p122
sg7
F22.8
sg8
g9
(g13
S'V\x11\xdc\xce\x7f\x8f\xd9?'
p123
tp124
Rp125
sg19
g9
(g13
S'\xb1\x95C\x8bl\xa7!\xc0'
p126
tp127
Rp128
sg23
I68
sg24
g25
(g26
(I0
tp129
g28
tp130
Rp131
(I1
(I3
I9
tp132
g34
I00
(lp133
F0.0
aF1.0
aF2.0
aF3.0
aF4.0
aF5.0
aF6.0
aF6.75
aF6.76
aF10.4
aF5.1
aF0.1
aF-2.3
aF-4.6
aF-6.2
aI-7
aF-7.4
aI0
aF14.2
aF-8.16
aF-9.96
aF-10.56
aF-10.65
aF-10.62
aF-10.58
aNaNatp134
bsg39
S'10'
p135
sg41
F23.8
sg42
F-7.4
sba(iStructure
Run
p136
(dp137
g3
F-10.5
sg4
I8
sg5
F82.5
sg7
F22.2
sg8
g9
(g13
S'\x1bI\xb4\xb2\xc9\x8a\xdb?'
p138
tp139
Rp140
sg19
g9
(g13
S':+\x87\x16\xd9\x0e!\xc0'
p141
tp142
Rp143
sg23
I83
sg24
g25
(g26
(I0
tp144
g28
tp145
Rp146
(I1
(I3
I9
tp147
g34
I00
(lp148
F0.0
aF1.0
aF2.0
aF3.0
aF4.0
aF5.0
aF6.0
aF6.95
aF6.96
aF10.0
aF6.4
aF0.8
aF-1.7
aF-4.3
aI-6
aF-6.9
aF-7.3
aI0
aF22.09
aF-7.81
aF-9.76
aF-10.52
aF-10.66
aF-10.65
aF-10.59
aF-10.55
aNatp149
bsg39
S'10'
p150
sg41
F24.2
sg42
F-7.3
sba(iStructure
Run
p151
(dp152
g3
F-10.5
sg4
I9
sg5
S'Cal'
p153
sg7
F22.2
sg8
g9
(g13
S',\x9a\x01\x1a\x01|\xe0?'
p154
tp155
Rp156
sg19
g9
(g13
S'SX9\xb4\xc86 \xc0'
p157
tp158
Rp159
sg23
I96
sg24
g25
(g26
(I0
tp160
g28
tp161
Rp162
(I1
(I3
I12
tp163
g34
I00
(lp164
F0.0
aF1.0
aF2.0
aF3.0
aF4.0
aF5.0
aF6.0
aF7.0
aF8.0
aF9.0
aF9.25
aF9.26
aF8.4
aF2.7
aF-0.8
aF-3.1
aF-5.2
aF-6.5
aF-7.1
aF-7.5
aF-7.8
aF-7.9
aF-7.9
aI0
aF7.9
aF-8.41
aF-10.12
aF-10.57
aF-10.63
aF-10.6
aF-10.56
aF-10.54
aF-10.52
aF-10.51
aF-10.51
aF-10.51
atp165
bsg39
S'10'
p166
sg41
F24.0
sg42
F-7.9
sba(iStructure
Run
p167
(dp168
g3
F-10.5
sg4
I10
sg5
F37.5
sg7
F22.6
sg8
g9
(g13
S'\xb3\xfbn\xaeBZ\xda?'
p169
tp170
Rp171
sg19
g9
(g13
S'5\x00\x00\x00\x00@!\xc0'
p172
tp173
Rp174
sg23
I105
sg24
g25
(g26
(I0
tp175
g28
tp176
Rp177
(I1
(I3
I8
tp178
g34
I00
(lp179
F0.0
aF1.0
aF2.0
aF3.0
aF4.0
aF5.0
aF6.0
aF6.01
aF8.2
aF2.6
aF-0.9
aF-3.3
aF-5.2
aF-6.4
aF-7.1
aI0
aF12.75
aF-8.43
aF-10.03
aNaF-10.63
aF-10.61
aF-10.52
aNatp180
bsg39
S'10'
p181
sg41
F23.7
sg42
F-7.1
sba(iStructure
Run
p182
(dp183
g3
F-10.5
sg4
I11
sg5
S'Cal'
p184
sg7
F24.8
sg8
g9
(g13
S'\xf4\xb6_\xbd\x9ap\xe1?'
p185
tp186
Rp187
sg19
g9
(g13
S'\x8e\x0c\x02+\x87\x16 \xc0'
p188
tp189
Rp190
sg23
I117
sg24
g25
(g26
(I0
tp191
g28
tp192
Rp193
(I1
(I3
I11
tp194
g34
I00
(lp195
F0.0
aF1.0
aF2.0
aF3.0
aF4.25
aF5.0
aF6.0
aF7.0
aF8.0
aF9.0
aF9.01
aF8.3
aF3.3
aF-0.7
aI-3
aF-5.4
aF-6.4
aI-7
aF-7.5
aF-7.7
aF-7.85
aI0
aF14.42
aF-8.25
aNaNaF-10.63
aF-10.61
aF-10.57
aF-10.54
aF-10.52
aF-10.51
aNatp196
bsg39
S'10'
p197
sg41
F24.4
sg42
F-7.85
sba(iStructure
Run
p198
(dp199
g3
F-10.5
sg4
I12
sg5
F12.5
sg7
F23.6
sg8
g9
(g13
S'\x82.$\x99\xf8\xe6\xdc?'
p200
tp201
Rp202
sg19
g9
(g13
S'L\x02+\x87\x16Y \xc0'
p203
tp204
Rp205
sg23
I128
sg24
g25
(g26
(I0
tp206
g28
tp207
Rp208
(I1
(I3
I10
tp209
g34
I00
(lp210
F0.0
aF1.0
aF2.0
aF3.0
aF4.0
aF5.0
aF6.0
aF7.0
aF7.65
aF7.66
aF7.2
aF2.4
aF-1.2
aF-3.4
aF-5.2
aF-6.4
aF-7.05
aF-7.5
aF-7.55
aI0
aF14.25
aF-8.32
aF-9.98
aF-10.53
aF-10.62
aF-10.61
aF-10.57
aF-10.55
aF-10.55
aNatp211
bsg39
S'10'
p212
sg41
F23.8
sg42
F-7.55
sba(iStructure
Run
p213
(dp214
g3
F-10.5
sg4
I13
sg5
S'Cal'
p215
sg7
F23.2
sg8
g9
(g13
S'$I\x9b\x9b\\\x9c\xe1?'
p216
tp217
Rp218
sg19
g9
(g13
S'\xaaZd;\xdf\xcf\x1f\xc0'
p219
tp220
Rp221
sg23
I151
sg24
g25
(g26
(I0
tp222
g28
tp223
Rp224
(I1
(I3
I12
tp225
g34
I00
(lp226
F0.0
aF1.25
aF2.0
aF3.0
aF4.0
aF5.0
aF6.0
aF7.0
aF8.0
aF9.0
aF9.33
aF9.34
aF8.0
aI1
aF-1.3
aF-3.4
aF-5.5
aF-6.5
aF-7.2
aF-7.5
aF-7.75
aF-7.8
aF-7.8
aI0
aF14.7
aF-8.9
aF-10.04
aF-10.56
aF-10.63
aF-10.6
aF-10.57
aF-10.53
aF-10.51
aF-10.52
aF-10.52
aNatp227
bsg39
S'10'
p228
sg41
F24.0
sg42
F-7.8
sba(iStructure
Run
p229
(dp230
g3
F-10.5
sg4
I14
sg5
F47.5
sg7
F23.6
sg8
g9
(g13
S'q\x89\xc8P9\xce\xe1?'
p231
tp232
Rp233
sg19
g9
(g13
S'\xb41\x08\xac\x1c\xda\x1f\xc0'
p234
tp235
Rp236
sg23
I163
sg24
g25
(g26
(I0
tp237
g28
tp238
Rp239
(I1
(I3
I11
tp240
g34
I00
(lp241
F0.0
aF1.0
aF2.0
aF3.0
aF4.0
aF5.0
aF6.0
aF7.0
aF8.0
aF9.16
aF9.17
aF8.7
aF3.2
aF-0.7
aI-3
aF-5.1
aF-6.3
aF-7.1
aF-7.5
aF-7.7
aF-7.8
aI0
aF13.25
aF-8.38
aF-10.01
aF-10.53
aF-10.64
aF-10.61
aF-10.57
aF-10.54
aF-10.53
aF-10.52
aNatp242
bsg39
S'10'
p243
sg41
F24.4
sg42
F-7.8
sba(iStructure
Run
p244
(dp245
g3
F-10.5
sg4
I15
sg5
S'Cal'
p246
sg7
F23.4
sg8
g9
(g13
S')L\x94\xb6\xb6\x90\xde?'
p247
tp248
Rp249
sg19
g9
(g13
S'\xdb\x99\x99\x99\x99Y \xc0'
p250
tp251
Rp252
sg23
I175
sg24
g25
(g26
(I0
tp253
g28
tp254
Rp255
(I1
(I3
I11
tp256
g34
I00
(lp257
F0.0
aF1.0
aF2.0
aF3.0
aF4.0
aF5.0
aF6.0
aF7.0
aF8.0
aF8.33
aF8.34
aF11.6
aI7
aF0.9
aF-1.6
aF-4.2
aF-5.9
aF-6.8
aF-7.3
aF-7.6
aF-7.7
aI0
aF19.56
aF-7.64
aF-9.82
aF-10.53
aF-10.67
aF-10.63
aF-10.59
aF-10.56
aF-10.53
aF-10.53
aNatp258
bsg39
S'10'
p259
sg41
F24.4
sg42
F-7.7
sba(iStructure
Run
p260
(dp261
g3
F-10.5
sg4
I16
sg5
F92.5
sg7
F23.0
sg8
Nsg19
Nsg23
I186
sg24
g25
(g26
(I0
tp262
g28
tp263
Rp264
(I1
(I3
I7
tp265
g34
I00
(lp266
F0.0
aF1.0
aF2.0
aF3.0
aF4.0
aF5.0
aF6.0
aF9.4
aF4.9
aF0.1
aF-2.1
aF-4.6
aF-6.1
aI0
aF19.48
aF-8.01
aF-9.84
aF-10.53
aF-10.66
aF-10.65
aNatp267
bsg39
S'10'
p268
sg41
F24.4
sg42
F-6.1
sba(iStructure
Run
p269
(dp270
g3
F-10.5
sg4
I17
sg5
F92.5
sg7
F23.0
sg8
Nsg19
Nsg23
I186
sg24
g25
(g26
(I0
tp271
g28
tp272
Rp273
(I1
(I3
I7
tp274
g34
I00
(lp275
F0.0
aF1.0
aF2.0
aF3.0
aF4.0
aF5.0
aF6.0
aF9.6
aF5.8
aF0.4
aF-1.9
aF-4.4
aI-6
aF0.1
aF19.86
aF-7.98
aF-9.88
aF-10.54
aF-10.66
aF-10.63
aF-10.5
atp276
bsg39
g268
sg41
F24.4
sg42
I-6
sba(iStructure
Run
p277
(dp278
g3
F-10.5
sg4
I18
sg5
S'Cal'
p279
sg7
F22.6
sg8
g9
(g13
S'\xe9\xd4\xef\xce3\xd1\xe3?'
p280
tp281
Rp282
sg19
g9
(g13
S'\x84\xfe\xd4x\xe9\xa6\x1f\xc0'
p283
tp284
Rp285
sg23
I212
sg24
g25
(g26
(I0
tp286
g28
tp287
Rp288
(I1
(I3
I13
tp289
g34
I00
(lp290
F0.0
aF1.0
aF2.25
aF3.0
aF4.0
aF5.0
aF6.0
aF7.0
aF8.0
aF9.0
aF10.0
aF10.5
aF10.57
aF9.0
aF4.5
aF-0.6
aF-2.4
aF-4.8
aF-6.2
aI-7
aF-7.5
aF-7.7
aF-7.8
aF-7.85
aF-7.85
aI0
aF4.66
aF-8.25
aF-10.21
aF-10.55
aF-10.66
aF-10.63
aF-10.58
aF-10.55
aF-10.52
aF-10.51
aF-10.5
aF-10.5
aNatp291
bsg39
S'10'
p292
sg41
F25.0
sg42
F-7.85
sba(iStructure
Run
p293
(dp294
g3
F-10.5
sg4
I19
sg5
F38.25
sg7
F22.8
sg8
g9
(g13
S'\x034\xfd\xd8\xac!\xdc?'
p295
tp296
Rp297
sg19
g9
(g13
S'\x01L7\x89A\xe0 \xc0'
p298
tp299
Rp300
sg23
I220
sg24
g25
(g26
(I0
tp301
g28
tp302
Rp303
(I1
(I3
I9
tp304
g34
I00
(lp305
F0.0
aF1.0
aF2.0
aF3.0
aF4.0
aF5.0
aF6.0
aF7.0
aF7.01
aF9.7
aF5.5
aF0.4
aF-2.1
aF-4.7
aI-6
aF-6.9
aF-7.4
aI0
aF19.39
aF-7.78
aF-9.85
aF-10.53
aF-10.66
aF-10.63
aF-10.59
aF-10.56
aNatp306
bsg39
S'10'
p307
sg41
F25.1
sg42
F-7.4
sba(iStructure
Run
p308
(dp309
g3
F-10.5
sg4
I20
sg5
S'Cal'
p310
sg7
F23.8
sg8
g9
(g13
S'\x13\xfe\xcc~8\x91\xe0?'
p311
tp312
Rp313
sg19
g9
(g13
S'X\x83\xc0\xca\xa1\x05 \xc0'
p314
tp315
Rp316
sg23
I231
sg24
g25
(g26
(I0
tp317
g28
tp318
Rp319
(I1
(I3
I10
tp320
g34
I00
(lp321
F0.0
aF1.0
aF2.0
aF3.0
aF4.0
aF5.0
aF6.0
aF7.0
aF8.75
aF8.76
aF9.4
aF3.8
aF-0.3
aF-2.6
aF-4.8
aF-6.2
aI-7
aF-7.4
aF-7.75
aI0
aF19.33
aF-7.96
aF-9.88
aF-10.54
aF-10.66
aF-10.63
aF-10.59
aF-10.55
aF-10.52
aNatp322
bsg39
S'10'
p323
sg41
F24.6
sg42
F-7.75
sba(iStructure
Run
p324
(dp325
g3
F-10.5
sg4
I21
sg5
F90.0
sg7
F23.4
sg8
Nsg19
Nsg23
I241
sg24
g25
(g26
(I0
tp326
g28
tp327
Rp328
(I1
(I3
I9
tp329
g34
I00
(lp330
F0.0
aF1.25
aF2.0
aF3.0
aF4.0
aF5.0
aF6.0
aF6.66
aF6.67
aF9.5
aI4
aF0.4
aI-2
aF-4.4
aI-6
aI-7
aF-7.2
aI0
aF19.77
aF-8.25
aF-9.76
aF-10.52
aF-10.67
aF-10.63
aF-10.59
aF-10.59
aNatp331
bsg39
S'10'
p332
sg41
F24.0
sg42
F-7.2
sba(iStructure
Run
p333
(dp334
g3
F-10.5
sg4
I22
sg5
S'Cal'
p335
sg7
F22.4
sg8
g9
(g13
S'\x96\xf1\xfaDz\x8c\xe0?'
p336
tp337
Rp338
sg19
g9
(g13
S'\xbb\xbe\x9f\x1a/\x1d \xc0'
p339
tp340
Rp341
sg23
I253
sg24
g25
(g26
(I0
tp342
g28
tp343
Rp344
(I1
(I3
I11
tp345
g34
I00
(lp346
F0.0
aF1.0
aF2.0
aF3.0
aF4.0
aF5.0
aF6.0
aF7.0
aF8.0
aF9.0
aF9.01
aF9.5
aF4.5
aI0
aF-2.4
aF-4.7
aF-6.1
aI-7
aF-7.4
aF-7.7
aF-7.8
aI0
aF17.3
aF-8.05
aF-9.88
aF-10.52
aF-10.65
aF-10.63
aF-10.57
aF-10.55
aF-10.53
aF-10.51
aNatp347
bsg39
S'10'
p348
sg41
F24.7
sg42
F-7.8
sba(iStructure
Run
p349
(dp350
g3
F-10.5
sg4
I23
sg5
F57.5
sg7
F22.6
sg8
g9
(g13
S'\xf0\x9c\x9eg\xc8\xbe\xd7?'
p351
tp352
Rp353
sg19
g9
(g13
S'A\x83\xc0\xca\xa1\xc5!\xc0'
p354
tp355
Rp356
sg23
I261
sg24
g25
(g26
(I0
tp357
g28
tp358
Rp359
(I1
(I3
I9
tp360
g34
I00
(lp361
F0.0
aF1.0
aF2.0
aF3.0
aF4.0
aF5.0
aF6.0
aF6.25
aF6.26
aF9.2
aF4.4
aF-0.2
aF-2.5
aF-4.7
aF-6.1
aF-6.9
aI-7
aI0
aF16.26
aF-6.25
aF-9.81
aF-10.53
aF-10.66
aF-10.63
aF-10.58
aF-10.58
aNatp362
bsg39
S'10'
p363
sg41
F24.4
sg42
I-7
sba(iStructure
Run
p364
(dp365
g3
F-10.5
sg4
I24
sg5
S'Cal'
p366
sg7
F22.8
sg8
g9
(g13
S'7\xc2s\xa5\xd1\x15\xe1?'
p367
tp368
Rp369
sg19
g9
(g13
S'$P\x8d\x97n\x12 \xc0'
p370
tp371
Rp372
sg23
I272
sg24
g25
(g26
(I0
tp373
g28
tp374
Rp375
(I1
(I3
I11
tp376
g34
I00
(lp377
F0.0
aF1.0
aF2.0
aF3.0
aF4.0
aF5.0
aF6.0
aF7.0
aF8.0
aF8.75
aF8.76
aF8.5
aF3.6
aF-0.6
aF-2.7
aF-4.9
aF-6.3
aF-7.1
aF-7.5
aF-7.7
aF-7.8
aI0
aF-18.75
aF-7.8
aF-9.88
aF-10.51
aF-10.65
aF-10.62
aF-10.58
aF-10.55
aF-10.51
aF-10.51
aNatp378
bsg39
S'10'
p379
sg41
F24.0
sg42
F-7.8
sba(iStructure
Run
p380
(dp381
g3
F-10.5
sg4
I25
sg5
F37.5
sg7
F22.4
sg8
Nsg19
Nsg23
I281
sg24
g25
(g26
(I0
tp382
g28
tp383
Rp384
(I1
(I3
I8
tp385
g34
I00
(lp386
F0.0
aF1.25
aF2.0
aF3.0
aF4.0
aF5.0
aF5.92
aF5.93
aF10.0
aF2.5
aF-0.6
aF-2.7
aI-5
aF-6.3
aI-7
aI0
aF-1.2
aF-9.15
aF-10.15
aF-10.6
aF-10.66
aF-10.63
aF-10.58
aNatp387
bsg39
S'10'
p388
sg41
F25.0
sg42
I-7
sba(iStructure
Run
p389
(dp390
g3
F-10.5
sg4
I26
sg5
S'Cal'
p391
sg7
F23.0
sg8
g9
(g13
S'\x16\x02<5\xa7n\xdb?'
p392
tp393
Rp394
sg19
g9
(g13
S'\x13\xcf\xf7S\xe3\xe5 \xc0'
p395
tp396
Rp397
sg23
I291
sg24
g25
(g26
(I0
tp398
g28
tp399
Rp400
(I1
(I3
I10
tp401
g34
I00
(lp402
F0.0
aF1.0
aF2.0
aF3.0
aF4.0
aF5.0
aF6.0
aF7.0
aF7.5
aF7.51
aF9.5
aI4
aF-0.3
aF-2.5
aF-4.8
aF-6.2
aI-7
aF-7.4
aF-7.65
aI0
aF19.86
aF-7.72
aF-9.82
aF-10.51
aF-10.65
aF-10.63
aF-10.58
aF-10.53
aF-10.53
aNatp403
bsg39
S'10'
p404
sg41
F24.2
sg42
F-7.65
sba(iStructure
Run
p405
(dp406
g3
F-10.5
sg4
I27
sg5
F90.0
sg7
F22.8
sg8
g9
(g13
S'\x994\xfe/t\xb7\xdc?'
p407
tp408
Rp409
sg19
g9
(g13
S'\x897\x89A`\xa5 \xc0'
p410
tp411
Rp412
sg23
I300
sg24
g25
(g26
(I0
tp413
g28
tp414
Rp415
(I1
(I3
I9
tp416
g34
I00
(lp417
F0.0
aF1.0
aF2.0
aF3.0
aF4.0
aF5.0
aF6.0
aF6.95
aF7.0
aF9.1
aF3.6
aF-0.6
aF-2.9
aI-5
aF-6.3
aF-7.1
aF-7.4
aI0
aF19.77
aF-7.8
aF-9.85
aF-10.51
aF-10.65
aF-10.63
aF-10.58
aF-10.56
aNatp418
bsg39
S'10'
p419
sg41
F24.5
sg42
F-7.4
sba(iStructure
Run
p420
(dp421
g3
F-10.5
sg4
I28
sg5
S'Cal'
p422
sg7
F23.0
sg8
g9
(g13
S'W\xf8\xe1\xba2\xe9\xe0?'
p423
tp424
Rp425
sg19
g9
(g13
S'\xec\xe5\xd0"\xdb\xf9\x1f\xc0'
p426
tp427
Rp428
sg23
I311
sg24
g25
(g26
(I0
tp429
g28
tp430
Rp431
(I1
(I3
I12
tp432
g34
I00
(lp433
F0.0
aF1.0
aF2.0
aF3.0
aF4.0
aF5.0
aF6.0
aF7.0
aF8.0
aF9.0
aF9.74
aF9.75
aF9.1
aF3.5
aF-0.6
aF-2.8
aF-4.9
aF-6.3
aI-7
aF-7.45
aF-7.65
aF-7.8
aF-7.85
aI0
aF19.24
aF-7.95
aF-9.86
aF-10.52
aF-10.65
aF-10.62
aF-10.57
aF-10.55
aF-10.53
aF-10.51
aF-10.51
aNatp434
bsg39
S'10'
p435
sg41
F24.6
sg42
F-7.85
sba(iStructure
Run
p436
(dp437
g3
F-10.5
sg4
I29
sg5
F12.5
sg7
F23.0
sg8
Nsg19
Nsg23
I327
sg24
g25
(g26
(I0
tp438
g28
tp439
Rp440
(I1
(I3
I7
tp441
g34
I00
(lp442
F0.0
aF1.0
aF2.0
aF3.0
aF4.0
aF4.9
aF4.91
aF9.4
aI3
aF-0.5
aF-2.8
aI-5
aF-6.2
aI0
aF11.0
aF-7.8
aF-10.07
aF-10.59
aF-10.66
aF-10.61
aNatp443
bsg39
S'10'
p444
sg41
F24.8
sg42
F-6.2
sba(iStructure
Run
p445
(dp446
g3
F-10.5
sg4
I30
sg5
S'Cal'
p447
sg7
F22.6
sg8
g9
(g13
S'\x0e}g\xac\x07\x8c\xdd?'
p448
tp449
Rp450
sg19
g9
(g13
S'\xfc\xbct\x93\x18\x84\x1f\xc0'
p451
tp452
Rp453
sg23
I340
sg24
g25
(g26
(I0
tp454
g28
tp455
Rp456
(I1
(I3
I14
tp457
g34
I00
(lp458
F0.0
aF1.0
aF2.0
aF3.0
aF4.0
aF5.0
aF6.0
aF7.0
aF8.0
aF9.0
aF10.0
aF11.0
aF11.5
aF11.51
aF8.6
aI3
aF-0.5
aF-2.7
aF-4.8
aF-6.2
aI-7
aF-7.3
aF-7.5
aF-7.6
aF-7.65
aF-7.75
aF-7.8
aI0
aF17.56
aF-8.28
aF-9.9
aF-10.51
aF-10.64
aF-10.63
aF-10.59
aF-10.53
aF-10.51
aF-10.52
aF-10.54
aF-10.52
aF-10.52
aNatp459
bsg39
S'10'
p460
sg41
F24.5
sg42
F-7.8
sba(iStructure
Run
p461
(dp462
g3
F-12.0
sg4
I1
sg5
S'Cal'
p463
sg7
F23.6
sg8
g9
(g13
S'CB\xa1i\x1c\xcb\xdf?'
p464
tp465
Rp466
sg19
g9
(g13
S'\xdf\xc0\xca\xa1Ev!\xc0'
p467
tp468
Rp469
sg23
I0
sg24
g25
(g26
(I0
tp470
g28
tp471
Rp472
(I1
(I3
I9
tp473
g34
I00
(lp474
F0.0
aF1.0
aF2.0
aF3.0
aF4.0
aF5.0
aF6.0
aF6.5
aF6.51
aF8.4
aF8.3
aF5.1
aF-0.6
aF-3.7
aF-5.7
aF-6.8
aF-7.3
aI0
aF16.83
aF-9.83
aF-11.21
aF-12.14
aF-12.22
aF-12.18
aF-12.12
aF-12.1
aNatp475
bsg39
S'11b'
p476
sg41
F25.0
sg42
F-7.3
sba(iStructure
Run
p477
(dp478
g3
F-12.0
sg4
I2
sg5
g463
sg7
F23.6
sg8
g9
(g13
S'\xcd\xe5t\xef?\xca\xda?'
p479
tp480
Rp481
sg19
g9
(g13
S'\x14\xa2E\xb6\xf3\xbd \xc0'
p482
tp483
Rp484
sg23
I0
sg24
g25
(g26
(I0
tp485
g28
tp486
Rp487
(I1
(I3
I9
tp488
g34
I00
(lp489
F0.0
aF1.0
aF2.0
aF3.0
aF4.0
aF5.0
aF6.0
aF6.33
aF6.34
aF7.5
aF8.9
aF4.9
aF0.3
aF-2.6
aF-4.6
aF-5.9
aF-6.2
aI0
aF19.1
aF-8.62
aF-10.44
aF-11.01
aF-11.16
aF-11.15
aF-11.11
aF-11.08
aNatp490
bsg39
g476
sg41
F25.0
sg42
F-6.2
sba(iStructure
Run
p491
(dp492
g3
F-10.5
sg4
I3
sg5
S'Cal'
p493
sg7
F23.6
sg8
g9
(g13
S'\xd8\xef&\xe3\xc7\xc8\xe0?'
p494
tp495
Rp496
sg19
g9
(g13
S'<\x15\xaeG\xe1\xfa\x1b\xc0'
p497
tp498
Rp499
sg23
I21
sg24
g25
(g26
(I0
tp500
g28
tp501
Rp502
(I1
(I3
I10
tp503
g34
I00
(lp504
F0.0
aF1.0
aF2.0
aF3.0
aF4.0
aF5.0
aF6.0
aF7.0
aF8.0
aF8.01
aF9.6
aF10.6
aF5.7
aF1.1
aF-2.2
aF-4.2
aF-5.4
aF-6.1
aF-6.4
aI0
aF18.2
aF-7.9
aF-9.85
aF-10.53
aF-10.68
aF-10.66
aF-10.6
aF-10.57
aF-10.54
aNatp505
bsg39
S'11b'
p506
sg41
F24.9
sg42
F-6.4
sba(iStructure
Run
p507
(dp508
g3
F-10.5
sg4
I4
sg5
S'DC'
p509
sg7
F23.0
sg8
g9
(g13
S'J\xb5\xf2\xbc\xcb\x96\xe0?'
p510
tp511
Rp512
sg19
g9
(g13
S'\xbc\xd5x\xe9&1\x1c\xc0'
p513
tp514
Rp515
sg23
I32
sg24
g25
(g26
(I0
tp516
g28
tp517
Rp518
(I1
(I3
I10
tp519
g34
I00
(lp520
F0.0
aF1.0
aF2.0
aF3.0
aF4.0
aF5.0
aF6.0
aF7.0
aF7.83
aF7.84
aF9.2
aI9
aF4.5
aF0.1
aF-2.7
aF-4.5
aF-5.6
aF-6.2
aF-6.45
aI0
aF14.41
aF-8.21
aF-10.01
aF-10.56
aF-10.67
aF-10.65
aF-10.59
aF-10.56
aF-10.52
aNatp521
bsg39
S'11b'
p522
sg41
F24.7
sg42
F-6.45
sba(iStructure
Run
p523
(dp524
g3
F-10.5
sg4
I5
sg5
S'Cal'
p525
sg7
F23.8
sg8
g9
(g13
S'\x98\xb6@\xa7\xba\xcf\xdf?'
p526
tp527
Rp528
sg19
g9
(g13
S'R\x9a\x99\x99\x99\x99\x1c\xc0'
p529
tp530
Rp531
sg23
I42
sg24
g25
(g26
(I0
tp532
g28
tp533
Rp534
(I1
(I3
I10
tp535
g34
I00
(lp536
F0.0
aF1.0
aF2.0
aF3.0
aF4.0
aF5.0
aF6.0
aF7.0
aF7.95
aF8.0
aF7.8
aF9.1
aF5.1
aF0.6
aF-2.5
aF-4.3
aF-5.5
aF-6.1
aF-6.5
aI0
aF19.52
aF-8.06
aF-9.86
aF-10.5
aF-10.66
aF-10.64
aF-10.6
aF-10.57
aNaNatp537
bsg39
S'11b'
p538
sg41
F24.6
sg42
F-6.5
sba(iStructure
Run
p539
(dp540
g3
F-10.5
sg4
I6
sg5
S'DC'
p541
sg7
F23.0
sg8
g9
(g13
S'\xaf\xfa^\x8e\x96\xd4\xe3?'
p542
tp543
Rp544
sg19
g9
(g13
S'\\\xe4\xa5\x9b\xc4\xa0\x1b\xc0'
p545
tp546
Rp547
sg23
I106
sg24
g25
(g26
(I0
tp548
g28
tp549
Rp550
(I1
(I3
I11
tp551
g34
I00
(lp552
F0.0
aF1.0
aF2.0
aF3.0
aF4.0
aF5.0
aF6.0
aF7.0
aF8.0
aF9.0
aF10.0
aF17.3
aI14
aF8.2
aF4.1
aF1.6
aF-2.1
aF-4.4
aF-5.6
aF-6.2
aF-6.5
aF-6.7
aF14.23
aF-5.35
aF-6.95
aF-4.3
aF-11.95
aF-11.48
aF-10.93
aF-10.74
aF-10.5
aF-10.38
aF-10.53
atp553
bsg39
S'11b'
p554
sg41
F22.9
sg42
F-6.7
sba(iStructure
Run
p555
(dp556
g3
F-10.5
sg4
I7
sg5
S'Cal'
p557
sg7
F23.2
sg8
g9
(g13
S'\xd8J\xce\xa3\xf3\xe1\xdd?'
p558
tp559
Rp560
sg19
g9
(g13
S'\x90{\x14\xaeGa\x1d\xc0'
p561
tp562
Rp563
sg23
I117
sg24
g25
(g26
(I0
tp564
g28
tp565
Rp566
(I1
(I3
I11
tp567
g34
I00
(lp568
F0.0
aF1.0
aF2.0
aF3.0
aF4.0
aF5.0
aF6.0
aF7.0
aF8.0
aF8.5
aF8.51
aF10.7
aF11.5
aF6.5
aI1
aF-1.9
aI-4
aF-5.3
aI-6
aF-6.5
aF-6.7
aI0
aF16.25
aF-7.87
aF-9.81
aF-10.57
aF-10.68
aF-10.67
aF-10.61
aF-10.57
aF-10.54
aF-10.54
aNatp569
bsg39
S'11b'
p570
sg41
F24.4
sg42
F-6.7
sba(iStructure
Run
p571
(dp572
g3
F-10.5
sg4
I8
sg5
F240000.0
sg7
F25.8
sg8
g9
(g13
S'y9\x07V\xdc\x04\xd1?'
p573
tp574
Rp575
sg19
g9
(g13
S'\xdcrh\x91\xed\xfc!\xc0'
p576
tp577
Rp578
sg23
I129
sg24
g25
(g26
(I0
tp579
g28
tp580
Rp581
(I1
(I3
I10
tp582
g34
I00
(lp583
F0.0
aF1.0
aF3.25
aF4.0
aF5.0
aF6.0
aF7.0
aF8.0
aF8.5
aF8.51
aF9.9
aF6.3
aF0.6
aF-1.8
aI-4
aF-5.3
aI-6
aF-6.5
aF-6.7
aI0
aF18.17
aF-9.92
aF-10.62
aF-10.67
aF-10.65
aF-10.6
aF-10.57
aF-10.55
aF-10.55
aNatp584
bsg39
S'11b'
p585
sg41
F26.2
sg42
F-6.7
sba(iStructure
Run
p586
(dp587
g3
F-10.5
sg4
I9
sg5
S'Cal'
p588
sg7
F23.4
sg8
g9
(g13
S'\x86\xa5\xfd\x9dA\x8e\xde?'
p589
tp590
Rp591
sg19
g9
(g13
S'\x02:\xb4\xc8v\xbe\x1d\xc0'
p592
tp593
Rp594
sg23
I141
sg24
g25
(g26
(I0
tp595
g28
tp596
Rp597
(I1
(I3
I10
tp598
g34
I00
(lp599
F0.0
aF1.0
aF2.0
aF3.0
aF4.0
aF5.0
aF6.0
aF7.0
aF8.0
aF8.01
aF10.4
aF11.5
aF6.4
aF1.6
aF-1.8
aF-4.1
aF-5.3
aF-6.2
aF-6.6
aI0
aF11.87
aF-7.77
aF-9.76
aF-10.51
aF-10.68
aF-10.67
aF-10.61
aF-10.58
aF-10.54
aNatp600
bsg39
S'11b'
p601
sg41
F24.8
sg42
F-6.6
sba(iStructure
Run
p602
(dp603
g3
F-10.5
sg4
I10
sg5
S'DC'
p604
sg7
F23.6
sg8
g9
(g13
S'u\xd9\xc5\xfe\xf5e\xe0?'
p605
tp606
Rp607
sg19
g9
(g13
S'\xd4/\xdd$\x06\x81\x1c\xc0'
p608
tp609
Rp610
sg23
I153
sg24
g25
(g26
(I0
tp611
g28
tp612
Rp613
(I1
(I3
I10
tp614
g34
I00
(lp615
F0.0
aF1.0
aF2.0
aF3.0
aF4.0
aF5.0
aF6.0
aF7.0
aF7.5
aF7.51
aF11.4
aF6.4
aF1.7
aF-2.2
aI-4
aF-5.3
aF-6.1
aF-6.5
aF-6.6
aI0
aF5.93
aF-9.57
aF-10.38
aF-10.63
aF-10.65
aF-10.61
aF-10.57
aF-10.53
aF-10.53
aNatp616
bsg39
S'11b'
p617
sg41
F24.4
sg42
F-6.6
sba(iStructure
Run
p618
(dp619
g3
F-10.5
sg4
I11
sg5
S'Cal'
p620
sg7
F23.0
sg8
g9
(g13
S'\xb7\x85\x8d\x0c\x865\xdc?'
p621
tp622
Rp623
sg19
g9
(g13
S'\xbe\xd9\xce\xf7S\xe3\x1d\xc0'
p624
tp625
Rp626
sg23
I165
sg24
g25
(g26
(I0
tp627
g28
tp628
Rp629
(I1
(I3
I10
tp630
g34
I00
(lp631
F0.0
aF1.0
aF2.0
aF3.0
aF4.0
aF5.0
aF6.0
aF7.0
aF8.0
aF8.05
aF8.9
aF9.6
aF5.2
aF0.6
aF-2.5
aF-4.4
aF-5.5
aF-6.2
aF-6.6
aI0
aF17.94
aF-9.76
aF-9.84
aF-10.52
aF-10.66
aF-10.65
aF-10.59
aF-10.57
aF-10.54
aNatp632
bsg39
S'11b'
p633
sg41
F25.0
sg42
F-6.6
sba(iStructure
Run
p634
(dp635
g3
F-10.5
sg4
I12
sg5
F1000.0
sg7
F23.0
sg8
g9
(g13
S'/\x91=\xee\xd7l\xdd?'
p636
tp637
Rp638
sg19
g9
(g13
S'\xe0\x89A`\xe5\xd0\x1d\xc0'
p639
tp640
Rp641
sg23
I175
sg24
g25
(g26
(I0
tp642
g28
tp643
Rp644
(I1
(I3
I10
tp645
g34
I00
(lp646
F0.0
aF1.0
aF2.0
aF3.0
aF4.0
aF5.0
aF6.0
aF7.0
aF7.25
aF7.26
aF8.1
aF9.8
aF5.2
aF0.7
aF-2.4
aF-4.3
aF-5.4
aF-6.2
aF-6.3
aI0
aF18.98
aF-7.9
aF-9.81
aF-10.51
aF-10.67
aF-10.65
aF-10.6
aF-10.56
aF-10.54
aNatp647
bsg39
S'11b'
p648
sg41
F24.7
sg42
F-6.3
sba(iStructure
Run
p649
(dp650
g3
F-10.5
sg4
I13
sg5
S'Cal'
p651
sg7
F22.6
sg8
g9
(g13
S'P\x9e\x89\xc8\x8dL\xdf?'
p652
tp653
Rp654
sg19
g9
(g13
S'ru\x93\x18\x04\xd6\x1c\xc0'
p655
tp656
Rp657
sg23
I185
sg24
g25
(g26
(I0
tp658
g28
tp659
Rp660
(I1
(I3
I9
tp661
g34
I00
(lp662
F0.0
aF1.0
aF2.0
aF3.0
aF4.0
aF5.0
aF6.0
aF7.0
aF8.0
aF9.3
aI11
aI6
aF1.3
aI-2
aF-4.1
aF-5.4
aI-6
aI0
aF19.92
aF-7.76
aF-9.76
aF-10.51
aF-10.67
aF-10.66
aF-10.66
aNaNatp663
bsg39
S'11b'
p664
sg41
F25.1
sg42
I-6
sba(iStructure
Run
p665
(dp666
g3
F-10.5
sg4
I14
sg5
F240000.0
sg7
F23.2
sg8
g9
(g13
S'\x15\xb3\x14x\xe7\xa6\xdf?'
p667
tp668
Rp669
sg19
g9
(g13
S'D\x98n\x12\x83\xc0\x1c\xc0'
p670
tp671
Rp672
sg23
I195
sg24
g25
(g26
(I0
tp673
g28
tp674
Rp675
(I1
(I3
I9
tp676
g34
I00
(lp677
F0.0
aF1.0
aF2.0
aF3.0
aF4.0
aF5.0
aF6.0
aF6.75
aF6.76
aF8.4
aF9.3
aI5
aF0.5
aF-2.6
aF-4.4
aF-5.5
aI-6
aI0
aF17.33
aF-7.94
aF-9.88
aF-10.53
aF-10.67
aF-10.64
aF-10.6
aF-10.57
aNatp678
bsg39
S'11b'
p679
sg41
F25.0
sg42
I-6
sba(iStructure
Run
p680
(dp681
g3
F-10.5
sg4
I15
sg5
S'Cal'
p682
sg7
F23.2
sg8
g9
(g13
S'&\xfe\xd0\x02m-\xe5?'
p683
tp684
Rp685
sg19
g9
(g13
S'\x14\t\xac\x1cZd\x19\xc0'
p686
tp687
Rp688
sg23
I204
sg24
g25
(g26
(I0
tp689
g28
tp690
Rp691
(I1
(I3
I9
tp692
g34
I00
(lp693
F0.0
aF1.0
aF2.0
aF3.0
aF4.0
aF5.0
aF6.0
aF7.0
aF8.0
aF8.3
aF9.3
aI5
aF0.6
aF-2.4
aF-4.4
aF-5.5
aF-5.8
aI0
aF19.1
aF-7.95
aF-9.3
aF-10.51
aF-10.67
aF-10.65
aF-10.6
aNaNatp694
bsg39
S'11b'
p695
sg41
F24.8
sg42
F-5.8
sba(iStructure
Run
p696
(dp697
g3
F-10.5
sg4
I16
sg5
S'DC'
p698
sg7
F22.6
sg8
g9
(g13
S'\xddi\x81\xd7~\xd5\xe0?'
p699
tp700
Rp701
sg19
g9
(g13
S'\xc6\xac\x1cZd;\x1c\xc0'
p702
tp703
Rp704
sg23
I224
sg24
g25
(g26
(I0
tp705
g28
tp706
Rp707
(I1
(I3
I9
tp708
g34
I00
(lp709
F0.0
aF1.0
aF2.0
aF3.0
aF4.0
aF5.0
aF6.0
aF6.49
aF6.5
aF13.1
aF9.1
aI4
aF-0.4
aF-3.1
aF-4.8
aF-5.7
aI-6
aI0
aF0.0
aF-8.82
aF-10.25
aF-10.64
aF-10.68
aF-10.63
aF-10.59
aF-10.56
aNatp710
bsg39
S'11b'
p711
sg41
F24.7
sg42
I-6
sba(iStructure
Run
p712
(dp713
g3
F-10.5
sg4
I17
sg5
S'Cal'
p714
sg7
F23.2
sg8
g9
(g13
S'\xc4WVh\xba\xf0\xde?'
p715
tp716
Rp717
sg19
g9
(g13
S'\xdc1\x08\xac\x1c\xda\x1c\xc0'
p718
tp719
Rp720
sg23
I233
sg24
g25
(g26
(I0
tp721
g28
tp722
Rp723
(I1
(I3
I9
tp724
g34
I00
(lp725
F0.0
aF1.0
aF2.0
aF3.0
aF4.0
aF5.0
aF6.0
aF6.83
aF6.84
aF7.7
aF9.2
aI5
aF0.4
aF-2.5
aF-4.3
aF-5.5
aI-6
aI0
aF19.8
aF-7.86
aF-9.76
aF-10.51
aF-10.66
aF-10.65
aF-10.6
aF-10.56
aNatp726
bsg39
S'11b'
p727
sg41
F25.3
sg42
I-6
sba(iStructure
Run
p728
(dp729
g3
F-10.5
sg4
I18
sg5
F1000.0
sg7
F22.2
sg8
g9
(g13
S'\xcb~\xf7\xeaCi\xde?'
p730
tp731
Rp732
sg19
g9
(g13
S'\xbc\x83\xc0\xca\xa1\xc5\x1d\xc0'
p733
tp734
Rp735
sg23
I243
sg24
g25
(g26
(I0
tp736
g28
tp737
Rp738
(I1
(I3
I9
tp739
g34
I00
(lp740
F0.0
aF1.0
aF2.0
aF3.0
aF4.0
aF5.0
aF6.0
aF6.95
aF6.96
aF12.2
aF11.7
aF6.3
aF1.4
aI-2
aF-4.1
aF-5.4
aF-6.1
aI0
aF18.67
aF-7.83
aF-9.8
aF-10.54
aF-10.68
aF-10.67
aF-10.61
aF-10.54
aNatp741
bsg39
S'11b'
p742
sg41
F25.1
sg42
F-6.1
sba(iStructure
Run
p743
(dp744
g3
F-10.5
sg4
I19
sg5
S'Cal'
p745
sg7
F22.8
sg8
g9
(g13
S'\xa8\xbe]\xc8Ww\xe0?'
p746
tp747
Rp748
sg19
g9
(g13
S'\x0c\xe4\xa5\x9b\xc4\xa0\x1c\xc0'
p749
tp750
Rp751
sg23
I254
sg24
g25
(g26
(I0
tp752
g28
tp753
Rp754
(I1
(I3
I10
tp755
g34
I00
(lp756
F0.0
aF1.0
aF2.0
aF3.0
aF4.0
aF5.0
aF6.0
aF7.0
aF7.33
aF7.34
aF9.7
aF8.7
aF4.3
aF-0.3
aI-3
aF-4.7
aF-5.7
aF-6.3
aF-6.4
aI0
aF10.2
aF-8.25
aF-10.08
aF-10.59
aF-10.66
aF-10.63
aF-10.59
aF-10.55
aF-10.51
aNatp757
bsg39
S'11b'
p758
sg41
F24.6
sg42
F-6.4
sba(iStructure
Run
p759
(dp760
g3
F-10.5
sg4
I20
sg5
F240000.0
sg7
F23.0
sg8
g9
(g13
S'5\xc7\xbf\xed\xca%\xde?'
p761
tp762
Rp763
sg19
g9
(g13
S'J\xc5 \xb0rh\x1d\xc0'
p764
tp765
Rp766
sg23
I264
sg24
g25
(g26
(I0
tp767
g28
tp768
Rp769
(I1
(I3
I10
tp770
g34
I00
(lp771
F0.0
aF1.5
aF2.0
aF3.0
aF4.0
aF5.0
aF6.0
aF7.0
aF7.17
aF7.18
aF9.7
aF8.8
aF6.3
aF1.5
aF-1.9
aI-4
aF-5.3
aI-6
aF-6.15
aI0
aF17.61
aF-8.83
aF-9.73
aF-10.51
aF-10.68
aF-10.67
aF-10.61
aF-10.56
aF-10.5
aNatp772
bsg39
S'11b'
p773
sg41
F24.7
sg42
F-6.15
sba(iStructure
Run
p774
(dp775
g3
F-10.5
sg4
I21
sg5
S'Cal'
p776
sg7
F23.6
sg8
g9
(g13
S'`\x11p\xb3+%\xe0?'
p777
tp778
Rp779
sg19
g9
(g13
S'\xc8\x02+\x87\x16Y\x1c\xc0'
p780
tp781
Rp782
sg23
I275
sg24
g25
(g26
(I0
tp783
g28
tp784
Rp785
(I1
(I3
I10
tp786
g34
I00
(lp787
F0.0
aF1.0
aF2.0
aF3.0
aF4.0
aF5.0
aF6.0
aF7.0
aF7.23
aF7.25
aF9.2
aF10.4
aF5.8
aF1.1
aF-2.2
aF-4.2
aF-5.4
aI-6
aF-6.15
aI0
aF19.0
aF-7.53
aF-9.72
aF-10.49
aF-10.66
aF-10.65
aF-10.61
aF-10.57
aF-10.55
aNatp788
bsg39
S'11b'
p789
sg41
F25.6
sg42
F-6.15
sba(iStructure
Run
p790
(dp791
g3
F-13.0
sg4
I0
sg5
S'Rough Cal'
p792
sg7
F24.8
sg8
g9
(g13
S'\xbfY\x85~x\x92\xe1?'
p793
tp794
Rp795
sg19
g9
(g13
S'\x8a\x85\xebQ\xb8^"\xc0'
p796
tp797
Rp798
sg23
I-10
sg24
g25
(g26
(I0
tp799
g28
tp800
Rp801
(I1
(I3
I9
tp802
g34
I00
(lp803
F0.0
aF1.0
aF2.0
aF3.0
aF4.0
aF5.0
aF6.0
aF6.75
aF6.76
aF21.4
aF15.7
aF9.4
aF3.3
aF-2.1
aI-5
aF-6.8
aF-7.6
aI0
aF9.84
aF-4.66
aF-11.8
aF-13.18
aF-13.29
aF-13.15
aF-13.16
aNaNatp804
bsg39
S'11b'
p805
sg41
F24.6
sg42
F-7.6
sba(iStructure
Run
p806
(dp807
g3
F-12.5
sg4
I1
sg5
S'Cal'
p808
sg7
F23.0
sg8
g9
(g13
S'wTq\xf6\xc5\xc6\xde?'
p809
tp810
Rp811
sg19
g9
(g13
S'\xb8d;\xdfOM"\xc0'
p812
tp813
Rp814
sg23
I0
sg24
g25
(g26
(I0
tp815
g28
tp816
Rp817
(I1
(I3
I14
tp818
g34
I00
(lp819
F0.0
aF1.0
aF2.0
aF3.0
aF4.0
aF5.0
aF6.0
aF7.0
aF8.0
aF9.0
aF10.0
aF11.0
aF11.84
aF11.84
aF7.0
aF13.9
aF8.8
aF3.8
aF0.5
aF-3.3
aF-5.6
aF-7.1
aF-7.9
aF-8.4
aF-8.7
aF-8.8
aF-8.95
aI0
aF24.62
aF3.21
aF-10.35
aI-12
aF-12.62
aF-12.71
aF-12.68
aF-12.62
aF-12.57
aF-12.55
aF-12.48
aF-12.52
aF-12.7
aNatp820
bsg39
S'12'
p821
sg41
F24.8
sg42
F-8.95
sba(iStructure
Run
p822
(dp823
g3
F-12.7
sg4
I2
sg5
F1000.0
sg7
F22.6
sg8
g9
(g13
S'\x1c\x80\xfaCq(\xdf?'
p824
tp825
Rp826
sg19
g9
(g13
S'\x88\x87\x16\xd9\xce\xb7"\xc0'
p827
tp828
Rp829
sg23
I12
sg24
g25
(g26
(I0
tp830
g28
tp831
Rp832
(I1
(I3
I12
tp833
g34
I00
(lp834
F0.0
aF1.0
aF2.0
aF3.0
aF4.0
aF5.0
aF6.0
aF7.0
aF8.0
aF9.0
aF10.0
aF10.43
aF6.8
aF9.7
aF4.8
aI2
aF-2.4
aF-5.1
aF-6.9
aF-7.8
aF-8.4
aF-8.7
aI-9
aI0
aF21.88
aF-8.07
aF-11.57
aF-12.65
aF-12.88
aF-12.89
aF-12.86
aF-12.78
aF-12.72
aF-12.74
aF-12.74
aNatp835
bsg39
S'12'
p836
sg41
F25.0
sg42
I-9
sba(iStructure
Run
p837
(dp838
g3
F-12.7
sg4
I3
sg5
F240000.0
sg7
F22.2
sg8
g9
(g13
S'"\x9e\xb2\xb5\xaf\x81\xd8?'
p839
tp840
Rp841
sg19
g9
(g13
S'\xc1\x10X9\xb4\xc8"\xc0'
p842
tp843
Rp844
sg23
I31
sg24
g25
(g26
(I0
tp845
g28
tp846
Rp847
(I1
(I3
I17
tp848
g34
I00
(lp849
F0.0
aF1.0
aF2.0
aF3.0
aF4.0
aF5.0
aF6.0
aF7.0
aF8.0
aF9.0
aF10.0
aF11.0
aF12.0
aF13.0
aF14.0
aF14.45
aF14.5
aF7.8
aF10.2
aI5
aI2
aF-2.3
aF-5.1
aF-6.7
aF-7.8
aF-8.4
aF-8.6
aF-8.85
aI-9
aF-9.1
aF-9.15
aF-9.2
aF-9.3
aI0
aF19.81
aF-7.51
aF-11.46
aF-12.61
aF-12.88
aF-12.81
aF-12.85
aF-12.77
aF-12.73
aF-12.75
aF-12.72
aF-12.7
aF-12.7
aF-12.8
aI-13
aI-13
aNatp850
bsg39
S'12'
p851
sg41
F24.8
sg42
F-9.3
sba(iStructure
Run
p852
(dp853
g3
F-12.7
sg4
I4
sg5
S'Cal'
p854
sg7
F23.6
sg8
g9
(g13
S'\x19]\x12\\\xc0\x81\xe0?'
p855
tp856
Rp857
sg19
g9
(g13
S'\xfan\x12\x83\xc0J"\xc0'
p858
tp859
Rp860
sg23
I45
sg24
g25
(g26
(I0
tp861
g28
tp862
Rp863
(I1
(I3
I14
tp864
g34
I00
(lp865
F0.0
aF1.0
aF2.0
aF3.0
aF4.0
aF5.0
aF6.0
aF7.0
aF8.0
aF9.0
aF10.0
aF11.0
aF11.49
aF11.5
aF6.6
aF8.8
aF4.1
aI1
aI-3
aF-5.5
aI-7
aF-7.9
aF-8.5
aF-8.6
aF-8.9
aI-9
aI-9
aI0
aF18.32
aF-8.76
aF-11.71
aF-12.66
aF-12.88
aF-12.87
aF-12.84
aF-12.78
aF-12.72
aF-12.74
aF-12.73
aF-12.71
aF-12.71
aNatp866
bsg39
S'12'
p867
sg41
F26.4
sg42
I-9
sba(iStructure
Run
p868
(dp869
g3
F-12.7
sg4
I5
sg5
F1000.0
sg7
F23.0
sg8
g9
(g13
S'\x13\xbb\xbc\xfaGB\xda?'
p870
tp871
Rp872
sg19
g9
(g13
S'\xab9\xb4\xc8v~#\xc0'
p873
tp874
Rp875
sg23
I58
sg24
g25
(g26
(I0
tp876
g28
tp877
Rp878
(I1
(I3
I11
tp879
g34
I00
(lp880
F0.0
aF1.0
aF2.0
aF3.0
aF4.0
aF5.0
aF6.0
aF7.25
aF8.0
aF8.55
aF8.56
aF6.6
aF8.5
aF3.8
aF0.4
aF-3.2
aF-5.6
aF-7.1
aF-8.1
aF-8.6
aF-8.7
aI0
aF17.66
aF-9.3
aF-11.85
aF-12.65
aF-12.9
aF-12.87
aF-12.82
aF-12.77
aF-12.67
aF-12.67
aNatp881
bsg39
S'12'
p882
sg41
F24.8
sg42
F-8.7
sba(iStructure
Run
p883
(dp884
g3
F-12.7
sg4
I6
sg5
S'Cal'
p885
sg7
F22.4
sg8
g9
(g13
S'\x905\x02V#<\xe0?'
p886
tp887
Rp888
sg19
g9
(g13
S'\x9f5^\xbaI\x8c"\xc0'
p889
tp890
Rp891
sg23
I72
sg24
g25
(g26
(I0
tp892
g28
tp893
Rp894
(I1
(I3
I14
tp895
g34
I00
(lp896
F0.0
aF1.0
aF2.0
aF3.0
aF4.0
aF5.0
aF6.25
aF7.5
aF8.0
aF9.0
aF10.0
aF11.0
aF11.95
aF12.0
aF6.6
aF9.4
aF4.6
aF1.8
aF-2.5
aF-5.2
aF-7.2
aF-8.2
aF-8.4
aF-8.7
aF-8.95
aF-9.1
aF-9.15
aI0
aF19.8
aF-9.07
aF-11.68
aF-12.63
aF-12.91
aF-12.88
aF-12.81
aF-12.76
aF-12.66
aF-12.73
aF-12.72
aF-12.71
aF-12.7
aNatp897
bsg39
S'12'
p898
sg41
F25.0
sg42
F-9.15
sba(iStructure
Run
p899
(dp900
g3
F-12.7
sg4
I7
sg5
F240000.0
sg7
F22.4
sg8
g9
(g13
S"3\xf8V\xb2'\x89\xe0?"
p901
tp902
Rp903
sg19
g9
(g13
S'n\x02+\x87\x16Y"\xc0'
p904
tp905
Rp906
sg23
I88
sg24
g25
(g26
(I0
tp907
g28
tp908
Rp909
(I1
(I3
I12
tp910
g34
I00
(lp911
F0.0
aF1.0
aF2.0
aF3.0
aF4.0
aF5.0
aF6.0
aF7.0
aF8.0
aF9.0
aF10.0
aF11.0
aF8.6
aF10.7
aF5.3
aF2.2
aF-2.3
aF-5.1
aF-6.8
aF-7.9
aF-8.5
aF-8.7
aF-8.9
aI-9
aF20.03
aF-7.86
aF-11.75
aF-12.62
aF-12.86
aF-12.88
aF-12.82
aF-12.79
aF-12.67
aF-12.72
aF-12.73
aF-12.72
atp912
bsg39
S'12'
p913
sg41
F24.3
sg42
I-9
sba(iStructure
Run
p914
(dp915
g3
F-12.7
sg4
I8
sg5
F1000.0
sg7
F22.2
sg8
g9
(g13
S'\xad\xf9\xfb}\x93\xfe\xe0?'
p916
tp917
Rp918
sg19
g9
(g13
S'n\x02+\x87\x16Y"\xc0'
p919
tp920
Rp921
sg23
I99
sg24
g25
(g26
(I0
tp922
g28
tp923
Rp924
(I1
(I3
I12
tp925
g34
I00
(lp926
F0.0
aF1.0
aF2.0
aF3.0
aF4.0
aF5.0
aF6.0
aF7.0
aF8.0
aF9.0
aF9.99
aF10.0
aF6.9
aI10
aF4.9
aF1.9
aF-2.6
aF-5.2
aF-6.8
aF-7.9
aF-8.4
aF-8.7
aF-8.9
aI0
aF20.05
aF-8.87
aF-11.61
aF-12.65
aF-12.87
aF-12.88
aF-12.83
aF-12.79
aF-12.72
aF-12.75
aF-12.74
aNatp927
bsg39
S'12'
p928
sg41
F25.0
sg42
F-8.9
sba(iStructure
Run
p929
(dp930
g3
F-12.7
sg4
I9
sg5
S'Cal'
p931
sg7
F21.6
sg8
g9
(g13
S'q\x0195\xaf\xe2\xd8?'
p932
tp933
Rp934
sg19
g9
(g13
S'\xeep=\n\xd7#$\xc0'
p935
tp936
Rp937
sg23
I110
sg24
g25
(g26
(I0
tp938
g28
tp939
Rp940
(I1
(I3
I9
tp941
g34
I00
(lp942
F0.0
aF1.0
aF2.0
aF3.0
aF4.0
aF5.0
aF6.0
aF6.95
aF7.0
aF6.4
aF6.2
aI3
aF-0.4
aF-3.8
aI-6
aF-7.4
aI-8
aI0
aF10.62
aF-10.53
aF-12.29
aF-12.77
aF-12.88
aF-12.88
aF-12.81
aF-12.8
aNatp943
bsg39
S'12'
p944
sg41
F24.4
sg42
I-8
sba(iStructure
Run
p945
(dp946
g3
F-12.7
sg4
I10
sg5
F240000.0
sg7
F22.0
sg8
g9
(g13
S'\xd3\xe5a\xb1\xeeO\xdd?'
p947
tp948
Rp949
sg19
g9
(g13
S"'\xf8S\xe3\xa5\x1b#\xc0"
p950
tp951
Rp952
sg23
I122
sg24
g25
(g26
(I0
tp953
g28
tp954
Rp955
(I1
(I3
I10
tp956
g34
I00
(lp957
F0.0
aF1.0
aF2.0
aF3.0
aF4.25
aF5.0
aF6.0
aF7.0
aF7.75
aF7.76
aF6.8
aF9.8
aF4.8
aF1.2
aF-3.2
aF-5.1
aF-6.9
aF-7.8
aF-8.3
aI0
aF19.95
aF-7.73
aF-11.59
aF-12.6
aF-12.91
aF-12.88
aF-12.82
aF-12.79
aF-12.77
aNatp958
bsg39
S'12'
p959
sg41
F24.9
sg42
F-8.3
sba(iStructure
Run
p960
(dp961
g3
F-12.7
sg4
I11
sg5
F1000.0
sg7
F21.6
sg8
g9
(g13
S'\x88Y=u\xcf\xa3\xde?'
p962
tp963
Rp964
sg19
g9
(g13
S'2#\xdb\xf9~j"\xc0'
p965
tp966
Rp967
sg23
I135
sg24
g25
(g26
(I0
tp968
g28
tp969
Rp970
(I1
(I3
I12
tp971
g34
I00
(lp972
F0.0
aF1.0
aF2.0
aF3.25
aF4.0
aF5.0
aF6.0
aF7.0
aF8.0
aF9.0
aF9.83
aF9.84
aF7.3
aF9.3
aF4.3
aF0.3
aF-2.8
aF-5.2
aF-6.9
aF-7.9
aF-8.4
aF-8.7
aF-8.8
aI0
aF19.55
aF-8.99
aF-11.77
aF-12.7
aF-12.9
aF-12.88
aF-12.83
aF-12.77
aF-12.72
aF-12.72
aF-12.72
aNatp973
bsg39
S'12'
p974
sg41
F23.7
sg42
F-8.8
sba(iStructure
Run
p975
(dp976
g3
F-12.7
sg4
I12
sg5
S'Cal'
p977
sg7
F22.6
sg8
g9
(g13
S'\xfe;\xa6\x8fTK\xe1?'
p978
tp979
Rp980
sg19
g9
(g13
S'\x18\xc9v\xbe\x9f\x1a"\xc0'
p981
tp982
Rp983
sg23
I149
sg24
g25
(g26
(I0
tp984
g28
tp985
Rp986
(I1
(I3
I13
tp987
g34
I00
(lp988
F0.0
aF1.0
aF2.0
aF3.0
aF4.0
aF5.0
aF6.0
aF7.0
aF8.0
aF9.0
aF10.0
aF10.32
aF10.33
aF6.0
aF9.7
aF4.8
aF2.1
aF-2.2
aI-5
aF-6.6
aF-7.7
aF-8.3
aF-8.65
aF-8.8
aF-8.8
aI0
aF20.03
aF-7.66
aF-11.6
aF-12.6
aF-12.87
aF-12.87
aF-12.82
aF-12.81
aF-12.76
aF-12.72
aF-12.68
aF-12.7
aNatp989
bsg39
S'12'
p990
sg41
F24.6
sg42
F-8.8
sba.